target datalayout = "e-m:e-p270:32:32-p271:32:32-p272:64:64-i64:64-i128:128-f80:128-n8:16:32:64-S128"
target triple = "x86_64-pc-linux-gnu"

%"class.ncnn::Mat" = type { ptr, ptr, i64, i32, ptr, i32, i32, i32, i32, i32, i64 }

; Function Attrs: mustprogress nounwind uwtable
define linkonce_odr noundef nofpclass(nan inf) float @_ZSt5roundf(float noundef nofpclass(nan inf) %0) #12 comdat {
  %2 = alloca float, align 4
  store float %0, ptr %2, align 4, !tbaa !51
  %3 = load float, ptr %2, align 4, !tbaa !51
  %4 = call fast float @llvm.round.f32(float %3)
  ret float %4
}

; Function Attrs: inlinehint mustprogress nounwind uwtable
define linkonce_odr noundef nonnull align 4 dereferenceable(4) ptr @_ZSt3maxIfERKT_S2_S2_(ptr noundef nonnull align 4 dereferenceable(4) %0, ptr noundef nonnull align 4 dereferenceable(4) %1) #0 comdat {
  %3 = alloca ptr, align 8
  %4 = alloca ptr, align 8
  %5 = alloca ptr, align 8
  store ptr %0, ptr %4, align 8, !tbaa !70
  store ptr %1, ptr %5, align 8, !tbaa !70
  %6 = load ptr, ptr %4, align 8, !tbaa !70
  %7 = load float, ptr %6, align 4, !tbaa !51
  %8 = load ptr, ptr %5, align 8, !tbaa !70
  %9 = load float, ptr %8, align 4, !tbaa !51
  %10 = fcmp fast olt float %7, %9
  br i1 %10, label %11, label %13

11:                                               ; preds = %2
  %12 = load ptr, ptr %5, align 8, !tbaa !70
  store ptr %12, ptr %3, align 8
  br label %15

13:                                               ; preds = %2
  %14 = load ptr, ptr %4, align 8, !tbaa !70
  store ptr %14, ptr %3, align 8
  br label %15

15:                                               ; preds = %13, %11
  %16 = load ptr, ptr %3, align 8
  ret ptr %16
}

; Function Attrs: inlinehint mustprogress nounwind uwtable
define linkonce_odr noundef nonnull align 4 dereferenceable(4) ptr @_ZSt3minIfERKT_S2_S2_(ptr noundef nonnull align 4 dereferenceable(4) %0, ptr noundef nonnull align 4 dereferenceable(4) %1) #0 comdat {
  %3 = alloca ptr, align 8
  %4 = alloca ptr, align 8
  %5 = alloca ptr, align 8
  store ptr %0, ptr %4, align 8, !tbaa !70
  store ptr %1, ptr %5, align 8, !tbaa !70
  %6 = load ptr, ptr %5, align 8, !tbaa !70
  %7 = load float, ptr %6, align 4, !tbaa !51
  %8 = load ptr, ptr %4, align 8, !tbaa !70
  %9 = load float, ptr %8, align 4, !tbaa !51
  %10 = fcmp fast olt float %7, %9
  br i1 %10, label %11, label %13

11:                                               ; preds = %2
  %12 = load ptr, ptr %5, align 8, !tbaa !70
  store ptr %12, ptr %3, align 8
  br label %15

13:                                               ; preds = %2
  %14 = load ptr, ptr %4, align 8, !tbaa !70
  store ptr %14, ptr %3, align 8
  br label %15

15:                                               ; preds = %13, %11
  %16 = load ptr, ptr %3, align 8
  ret ptr %16
}

; Function Attrs: alwaysinline mustprogress nounwind uwtable
define linkonce_odr hidden noundef nonnull align 4 dereferenceable(4) ptr @_ZNK4ncnn3MatixEm(ptr noundef nonnull align 8 dereferenceable(72) %0, i64 noundef %1) #3 comdat align 2 {
  %3 = alloca ptr, align 8
  %4 = alloca i64, align 8
  store ptr %0, ptr %3, align 8, !tbaa !39
  store i64 %1, ptr %4, align 8, !tbaa !64
  %5 = load ptr, ptr %3, align 8
  %6 = getelementptr inbounds nuw %"class.ncnn::Mat", ptr %5, i32 0, i32 0
  %7 = load ptr, ptr %6, align 8, !tbaa !56
  %8 = load i64, ptr %4, align 8, !tbaa !64
  %9 = getelementptr inbounds nuw float, ptr %7, i64 %8
  ret ptr %9
}

; Function Attrs: inlinehint mustprogress uwtable
define internal noundef signext i8 @_ZN4ncnnL10float2int8Ef(float noundef nofpclass(nan inf) %0) #10 {
  %2 = alloca i8, align 1
  %3 = alloca float, align 4
  %4 = alloca i32, align 4
  %5 = alloca i32, align 4
  store float %0, ptr %3, align 4, !tbaa !51
  call void @llvm.lifetime.start.p0(i64 4, ptr %4) #9
  %6 = load float, ptr %3, align 4, !tbaa !51
  %7 = call fast noundef nofpclass(nan inf) float @_ZSt5roundf(float noundef nofpclass(nan inf) %6)
  %8 = fptosi float %7 to i32
  store i32 %8, ptr %4, align 4, !tbaa !43
  %9 = load i32, ptr %4, align 4, !tbaa !43
  %10 = icmp sgt i32 %9, 127
  br i1 %10, label %11, label %12

11:                                               ; preds = %1
  store i8 127, ptr %2, align 1
  store i32 1, ptr %5, align 4
  br label %19

12:                                               ; preds = %1
  %13 = load i32, ptr %4, align 4, !tbaa !43
  %14 = icmp slt i32 %13, -127
  br i1 %14, label %15, label %16

15:                                               ; preds = %12
  store i8 -127, ptr %2, align 1
  store i32 1, ptr %5, align 4
  br label %19

16:                                               ; preds = %12
  %17 = load i32, ptr %4, align 4, !tbaa !43
  %18 = trunc i32 %17 to i8
  store i8 %18, ptr %2, align 1
  store i32 1, ptr %5, align 4
  br label %19

19:                                               ; preds = %16, %15, %11
  call void @llvm.lifetime.end.p0(i64 4, ptr %4) #9
  %20 = load i8, ptr %2, align 1
  ret i8 %20
}

; Function Attrs: alwaysinline mustprogress uwtable
define internal noundef nofpclass(nan inf) float @_ZL13activation_ssfiRKN4ncnn3MatE(float noundef nofpclass(nan inf) %0, i32 noundef %1, ptr noundef nonnull align 8 dereferenceable(72) %2) #5 {
  %4 = alloca float, align 4
  %5 = alloca i32, align 4
  %6 = alloca ptr, align 8
  %7 = alloca float, align 4
  %8 = alloca float, align 4
  %9 = alloca float, align 4
  %10 = alloca float, align 4
  %11 = alloca float, align 4
  %12 = alloca float, align 4
  %13 = alloca float, align 4
  %14 = alloca float, align 4
  %15 = alloca float, align 4
  store float %0, ptr %4, align 4, !tbaa !51
  store i32 %1, ptr %5, align 4, !tbaa !43
  store ptr %2, ptr %6, align 8, !tbaa !39
  %16 = load i32, ptr %5, align 4, !tbaa !43
  switch i32 %16, label %105 [
    i32 1, label %17
    i32 2, label %20
    i32 3, label %34
    i32 4, label %53
    i32 5, label %63
    i32 6, label %71
  ]

17:                                               ; preds = %3
  %18 = load float, ptr %4, align 4, !tbaa !51
  %19 = call fast float @llvm.maxnum.f32(float %18, float 0.000000e+00)
  store float %19, ptr %4, align 4, !tbaa !51
  br label %105

20:                                               ; preds = %3
  call void @llvm.lifetime.start.p0(i64 4, ptr %7) #9
  %21 = load ptr, ptr %6, align 8, !tbaa !39
  %22 = call noundef nonnull align 4 dereferenceable(4) ptr @_ZNK4ncnn3MatixEm(ptr noundef nonnull align 8 dereferenceable(72) %21, i64 noundef 0)
  %23 = load float, ptr %22, align 4, !tbaa !51
  store float %23, ptr %7, align 4, !tbaa !51
  %24 = load float, ptr %4, align 4, !tbaa !51
  %25 = fcmp fast ogt float %24, 0.000000e+00
  br i1 %25, label %26, label %28

26:                                               ; preds = %20
  %27 = load float, ptr %4, align 4, !tbaa !51
  br label %32

28:                                               ; preds = %20
  %29 = load float, ptr %4, align 4, !tbaa !51
  %30 = load float, ptr %7, align 4, !tbaa !51
  %31 = fmul fast float %29, %30
  br label %32

32:                                               ; preds = %28, %26
  %33 = phi fast float [ %27, %26 ], [ %31, %28 ]
  store float %33, ptr %4, align 4, !tbaa !51
  call void @llvm.lifetime.end.p0(i64 4, ptr %7) #9
  br label %105

34:                                               ; preds = %3
  call void @llvm.lifetime.start.p0(i64 4, ptr %8) #9
  %35 = load ptr, ptr %6, align 8, !tbaa !39
  %36 = call noundef nonnull align 4 dereferenceable(4) ptr @_ZNK4ncnn3MatixEm(ptr noundef nonnull align 8 dereferenceable(72) %35, i64 noundef 0)
  %37 = load float, ptr %36, align 4, !tbaa !51
  store float %37, ptr %8, align 4, !tbaa !51
  call void @llvm.lifetime.start.p0(i64 4, ptr %9) #9
  %38 = load ptr, ptr %6, align 8, !tbaa !39
  %39 = call noundef nonnull align 4 dereferenceable(4) ptr @_ZNK4ncnn3MatixEm(ptr noundef nonnull align 8 dereferenceable(72) %38, i64 noundef 1)
  %40 = load float, ptr %39, align 4, !tbaa !51
  store float %40, ptr %9, align 4, !tbaa !51
  %41 = load float, ptr %4, align 4, !tbaa !51
  %42 = load float, ptr %8, align 4, !tbaa !51
  %43 = fcmp fast olt float %41, %42
  br i1 %43, label %44, label %46

44:                                               ; preds = %34
  %45 = load float, ptr %8, align 4, !tbaa !51
  store float %45, ptr %4, align 4, !tbaa !51
  br label %46

46:                                               ; preds = %44, %34
  %47 = load float, ptr %4, align 4, !tbaa !51
  %48 = load float, ptr %9, align 4, !tbaa !51
  %49 = fcmp fast ogt float %47, %48
  br i1 %49, label %50, label %52

50:                                               ; preds = %46
  %51 = load float, ptr %9, align 4, !tbaa !51
  store float %51, ptr %4, align 4, !tbaa !51
  br label %52

52:                                               ; preds = %50, %46
  call void @llvm.lifetime.end.p0(i64 4, ptr %9) #9
  call void @llvm.lifetime.end.p0(i64 4, ptr %8) #9
  br label %105

53:                                               ; preds = %3
  call void @llvm.lifetime.start.p0(i64 4, ptr %10) #9
  store float 0x40561814A0000000, ptr %10, align 4, !tbaa !51
  %54 = call noundef nonnull align 4 dereferenceable(4) ptr @_ZSt3minIfERKT_S2_S2_(ptr noundef nonnull align 4 dereferenceable(4) %4, ptr noundef nonnull align 4 dereferenceable(4) %10)
  %55 = load float, ptr %54, align 4, !tbaa !51
  store float %55, ptr %4, align 4, !tbaa !51
  call void @llvm.lifetime.end.p0(i64 4, ptr %10) #9
  call void @llvm.lifetime.start.p0(i64 4, ptr %11) #9
  store float 0xC0561814A0000000, ptr %11, align 4, !tbaa !51
  %56 = call noundef nonnull align 4 dereferenceable(4) ptr @_ZSt3maxIfERKT_S2_S2_(ptr noundef nonnull align 4 dereferenceable(4) %4, ptr noundef nonnull align 4 dereferenceable(4) %11)
  %57 = load float, ptr %56, align 4, !tbaa !51
  store float %57, ptr %4, align 4, !tbaa !51
  call void @llvm.lifetime.end.p0(i64 4, ptr %11) #9
  %58 = load float, ptr %4, align 4, !tbaa !51
  %59 = fneg fast float %58
  %60 = call fast float @llvm.exp.f32(float %59)
  %61 = fadd fast float 1.000000e+00, %60
  %62 = fdiv fast float 1.000000e+00, %61
  store float %62, ptr %4, align 4, !tbaa !51
  br label %105

63:                                               ; preds = %3
  %64 = load float, ptr %4, align 4, !tbaa !51
  %65 = load float, ptr %4, align 4, !tbaa !51
  %66 = call fast float @llvm.exp.f32(float %65)
  %67 = fadd fast float %66, 1.000000e+00
  %68 = call fast float @llvm.log.f32(float %67)
  %69 = call fast float @llvm.tanh.f32(float %68)
  %70 = fmul fast float %64, %69
  store float %70, ptr %4, align 4, !tbaa !51
  br label %105

71:                                               ; preds = %3
  call void @llvm.lifetime.start.p0(i64 4, ptr %12) #9
  %72 = load ptr, ptr %6, align 8, !tbaa !39
  %73 = call noundef nonnull align 4 dereferenceable(4) ptr @_ZNK4ncnn3MatixEm(ptr noundef nonnull align 8 dereferenceable(72) %72, i64 noundef 0)
  %74 = load float, ptr %73, align 4, !tbaa !51
  store float %74, ptr %12, align 4, !tbaa !51
  call void @llvm.lifetime.start.p0(i64 4, ptr %13) #9
  %75 = load ptr, ptr %6, align 8, !tbaa !39
  %76 = call noundef nonnull align 4 dereferenceable(4) ptr @_ZNK4ncnn3MatixEm(ptr noundef nonnull align 8 dereferenceable(72) %75, i64 noundef 1)
  %77 = load float, ptr %76, align 4, !tbaa !51
  store float %77, ptr %13, align 4, !tbaa !51
  call void @llvm.lifetime.start.p0(i64 4, ptr %14) #9
  %78 = load float, ptr %13, align 4, !tbaa !51
  %79 = fneg fast float %78
  %80 = load float, ptr %12, align 4, !tbaa !51
  %81 = fdiv fast float %79, %80
  store float %81, ptr %14, align 4, !tbaa !51
  call void @llvm.lifetime.start.p0(i64 4, ptr %15) #9
  %82 = load float, ptr %12, align 4, !tbaa !51
  %83 = fdiv fast float 1.000000e+00, %82
  %84 = load float, ptr %14, align 4, !tbaa !51
  %85 = fadd fast float %83, %84
  store float %85, ptr %15, align 4, !tbaa !51
  %86 = load float, ptr %4, align 4, !tbaa !51
  %87 = load float, ptr %14, align 4, !tbaa !51
  %88 = fcmp fast olt float %86, %87
  br i1 %88, label %89, label %90

89:                                               ; preds = %71
  store float 0.000000e+00, ptr %4, align 4, !tbaa !51
  br label %104

90:                                               ; preds = %71
  %91 = load float, ptr %4, align 4, !tbaa !51
  %92 = load float, ptr %15, align 4, !tbaa !51
  %93 = fcmp fast ogt float %91, %92
  br i1 %93, label %94, label %95

94:                                               ; preds = %90
  br label %103

95:                                               ; preds = %90
  %96 = load float, ptr %4, align 4, !tbaa !51
  %97 = load float, ptr %4, align 4, !tbaa !51
  %98 = load float, ptr %12, align 4, !tbaa !51
  %99 = fmul fast float %97, %98
  %100 = load float, ptr %13, align 4, !tbaa !51
  %101 = fadd fast float %99, %100
  %102 = fmul fast float %96, %101
  store float %102, ptr %4, align 4, !tbaa !51
  br label %103

103:                                              ; preds = %95, %94
  br label %104

104:                                              ; preds = %103, %89
  call void @llvm.lifetime.end.p0(i64 4, ptr %15) #9
  call void @llvm.lifetime.end.p0(i64 4, ptr %14) #9
  call void @llvm.lifetime.end.p0(i64 4, ptr %13) #9
  call void @llvm.lifetime.end.p0(i64 4, ptr %12) #9
  br label %105

105:                                              ; preds = %3, %104, %63, %53, %52, %32, %17
  %106 = load float, ptr %4, align 4, !tbaa !51
  ret float %106
}

; Function Attrs: mustprogress uwtable
define internal void @_ZN4ncnnL10requantizeEPKiPafffiRKNS_3MatEi(ptr noundef %0, ptr noundef %1, float noundef nofpclass(nan inf) %2, float noundef nofpclass(nan inf) %3, float noundef nofpclass(nan inf) %4, i32 noundef %5, ptr noundef nonnull align 8 dereferenceable(72) %6, i32 noundef %7) #1 {
  %9 = alloca ptr, align 8
  %10 = alloca ptr, align 8
  %11 = alloca float, align 4
  %12 = alloca float, align 4
  %13 = alloca float, align 4
  %14 = alloca i32, align 4
  %15 = alloca ptr, align 8
  %16 = alloca i32, align 4
  %17 = alloca i32, align 4
  %18 = alloca float, align 4
  store ptr %0, ptr %9, align 8, !tbaa !49
  store ptr %1, ptr %10, align 8, !tbaa !50
  store float %2, ptr %11, align 4, !tbaa !51
  store float %3, ptr %12, align 4, !tbaa !51
  store float %4, ptr %13, align 4, !tbaa !51
  store i32 %5, ptr %14, align 4, !tbaa !43
  store ptr %6, ptr %15, align 8, !tbaa !39
  store i32 %7, ptr %16, align 4, !tbaa !43
  call void @llvm.lifetime.start.p0(i64 4, ptr %17) #9
  store i32 0, ptr %17, align 4, !tbaa !43
  br label %19

19:                                               ; preds = %45, %8
  %20 = load i32, ptr %17, align 4, !tbaa !43
  %21 = load i32, ptr %16, align 4, !tbaa !43
  %22 = icmp slt i32 %20, %21
  br i1 %22, label %24, label %23

23:                                               ; preds = %19
  call void @llvm.lifetime.end.p0(i64 4, ptr %17) #9
  br label %48

24:                                               ; preds = %19
  call void @llvm.lifetime.start.p0(i64 4, ptr %18) #9
  %25 = load ptr, ptr %9, align 8, !tbaa !49
  %26 = load i32, ptr %25, align 4, !tbaa !43
  %27 = sitofp i32 %26 to float
  %28 = load float, ptr %11, align 4, !tbaa !51
  %29 = fmul fast float %27, %28
  %30 = load float, ptr %12, align 4, !tbaa !51
  %31 = fadd fast float %29, %30
  store float %31, ptr %18, align 4, !tbaa !51
  %32 = load float, ptr %18, align 4, !tbaa !51
  %33 = load i32, ptr %14, align 4, !tbaa !43
  %34 = load ptr, ptr %15, align 8, !tbaa !39
  %35 = call fast noundef nofpclass(nan inf) float @_ZL13activation_ssfiRKN4ncnn3MatE(float noundef nofpclass(nan inf) %32, i32 noundef %33, ptr noundef nonnull align 8 dereferenceable(72) %34)
  store float %35, ptr %18, align 4, !tbaa !51
  %36 = load float, ptr %18, align 4, !tbaa !51
  %37 = load float, ptr %13, align 4, !tbaa !51
  %38 = fmul fast float %36, %37
  %39 = call noundef signext i8 @_ZN4ncnnL10float2int8Ef(float noundef nofpclass(nan inf) %38)
  %40 = load ptr, ptr %10, align 8, !tbaa !50
  store i8 %39, ptr %40, align 1, !tbaa !65
  %41 = load ptr, ptr %9, align 8, !tbaa !49
  %42 = getelementptr inbounds nuw i32, ptr %41, i32 1
  store ptr %42, ptr %9, align 8, !tbaa !49
  %43 = load ptr, ptr %10, align 8, !tbaa !50
  %44 = getelementptr inbounds nuw i8, ptr %43, i32 1
  store ptr %44, ptr %10, align 8, !tbaa !50
  call void @llvm.lifetime.end.p0(i64 4, ptr %18) #9
  br label %45

45:                                               ; preds = %24
  %46 = load i32, ptr %17, align 4, !tbaa !43
  %47 = add nsw i32 %46, 1
  store i32 %47, ptr %17, align 4, !tbaa !43
  br label %19, !llvm.loop !66

48:                                               ; preds = %23
  ret void
}