; Function Attrs: mustprogress nofree norecurse nosync nounwind memory(read, argmem: readwrite, inaccessiblemem: none) uwtable
define internal fastcc void @_ZN4ncnnL10requantizeEPKiPafffiRKNS_3MatEi(ptr noundef readonly captures(none) %0, ptr noundef writeonly captures(none) %1, float noundef nofpclass(nan inf) %2, float noundef nofpclass(nan inf) %3, float noundef nofpclass(nan inf) %4, i32 noundef %5, ptr noundef nonnull readonly align 8 captures(none) dereferenceable(72) %6, i32 noundef %7) unnamed_addr #8 {
  %9 = icmp sgt i32 %7, 0
  br i1 %9, label %.lr.ph, label %._crit_edge

._crit_edge:                                      ; preds = %_ZL13activation_ssfiRKN4ncnn3MatE.exit, %8
  ret void

.lr.ph:                                           ; preds = %8, %_ZL13activation_ssfiRKN4ncnn3MatE.exit
  %.029 = phi ptr [ %62, %_ZL13activation_ssfiRKN4ncnn3MatE.exit ], [ %0, %8 ]
  %.01328 = phi i32 [ %64, %_ZL13activation_ssfiRKN4ncnn3MatE.exit ], [ 0, %8 ]
  %.01427 = phi ptr [ %63, %_ZL13activation_ssfiRKN4ncnn3MatE.exit ], [ %1, %8 ]
  %10 = load i32, ptr %.029, align 4, !tbaa !44
  %11 = sitofp i32 %10 to float
  %12 = fmul fast float %2, %11
  %13 = fadd fast float %12, %3
  switch i32 %5, label %_ZL13activation_ssfiRKN4ncnn3MatE.exit [
    i32 1, label %14
    i32 2, label %16
    i32 3, label %22
    i32 4, label %30
    i32 5, label %37
    i32 6, label %43
  ]

14:                                               ; preds = %.lr.ph
  %15 = tail call fast float @llvm.maxnum.f32(float %13, float 0.000000e+00)
  br label %_ZL13activation_ssfiRKN4ncnn3MatE.exit

16:                                               ; preds = %.lr.ph
  %17 = load ptr, ptr %6, align 8, !tbaa !16
  %18 = load float, ptr %17, align 4, !tbaa !47
  %19 = fcmp fast ogt float %13, 0.000000e+00
  %20 = select fast i1 %19, float 1.000000e+00, float %18
  %21 = fmul fast float %20, %13
  br label %_ZL13activation_ssfiRKN4ncnn3MatE.exit

22:                                               ; preds = %.lr.ph
  %23 = load ptr, ptr %6, align 8, !tbaa !16
  %24 = load float, ptr %23, align 4, !tbaa !47
  %25 = getelementptr inbounds nuw i8, ptr %23, i64 4
  %26 = load float, ptr %25, align 4, !tbaa !47
  %27 = fcmp fast olt float %13, %24
  %.026 = select nsz i1 %27, float %24, float %13
  %28 = fcmp fast ogt float %.026, %26
  br i1 %28, label %29, label %_ZL13activation_ssfiRKN4ncnn3MatE.exit

29:                                               ; preds = %22
  br label %_ZL13activation_ssfiRKN4ncnn3MatE.exit

30:                                               ; preds = %.lr.ph
  %31 = fcmp fast ogt float %13, 0x40561814A0000000
  %.sroa.speculated17 = select i1 %31, float 0x40561814A0000000, float %13
  %32 = fcmp fast olt float %.sroa.speculated17, 0xC0561814A0000000
  %.sroa.speculated17.neg = fneg fast float %.sroa.speculated17
  %33 = tail call fast float @llvm.exp.f32(float %.sroa.speculated17.neg)
  %34 = fadd fast float %33, 1.000000e+00
  %35 = fdiv fast float 1.000000e+00, %34
  %36 = select i1 %32, float 0x37F6A0A880000000, float %35
  br label %_ZL13activation_ssfiRKN4ncnn3MatE.exit

37:                                               ; preds = %.lr.ph
  %38 = tail call fast float @llvm.exp.f32(float %13)
  %39 = fadd fast float %38, 1.000000e+00
  %40 = tail call fast float @llvm.log.f32(float %39)
  %41 = tail call fast float @llvm.tanh.f32(float %40)
  %42 = fmul fast float %41, %13
  br label %_ZL13activation_ssfiRKN4ncnn3MatE.exit

43:                                               ; preds = %.lr.ph
  %44 = load ptr, ptr %6, align 8, !tbaa !16
  %45 = load float, ptr %44, align 4, !tbaa !47
  %46 = getelementptr inbounds nuw i8, ptr %44, i64 4
  %47 = load float, ptr %46, align 4, !tbaa !47
  %48 = fneg fast float %47
  %49 = fdiv fast float %48, %45
  %50 = fcmp fast olt float %13, %49
  br i1 %50, label %_ZL13activation_ssfiRKN4ncnn3MatE.exit, label %51

51:                                               ; preds = %43
  %52 = fdiv fast float 1.000000e+00, %45
  %53 = fadd fast float %49, %52
  %54 = fcmp fast ogt float %13, %53
  br i1 %54, label %_ZL13activation_ssfiRKN4ncnn3MatE.exit, label %55

55:                                               ; preds = %51
  %56 = fmul fast float %45, %13
  %57 = fadd fast float %56, %47
  %58 = fmul fast float %57, %13
  br label %_ZL13activation_ssfiRKN4ncnn3MatE.exit

_ZL13activation_ssfiRKN4ncnn3MatE.exit:           ; preds = %43, %.lr.ph, %14, %16, %22, %29, %30, %37, %51, %55
  %.1 = phi nsz float [ %13, %.lr.ph ], [ %13, %51 ], [ %58, %55 ], [ %42, %37 ], [ %36, %30 ], [ %26, %29 ], [ %.026, %22 ], [ %21, %16 ], [ %15, %14 ], [ 0.000000e+00, %43 ]
  %59 = fmul fast float %.1, %4
  %60 = tail call fast noundef float @llvm.round.f32(float %59)
  %61 = fptosi float %60 to i32
  %spec.select5.i = tail call i32 @llvm.smax.i32(i32 %61, i32 -127)
  %.06.i = tail call i32 @llvm.smin.i32(i32 %spec.select5.i, i32 127)
  %.0.i = trunc nsw i32 %.06.i to i8
  store i8 %.0.i, ptr %.01427, align 1, !tbaa !52
  %62 = getelementptr inbounds nuw i8, ptr %.029, i64 4
  %63 = getelementptr inbounds nuw i8, ptr %.01427, i64 1
  %64 = add nuw nsw i32 %.01328, 1
  %exitcond.not = icmp eq i32 %64, %7
  br i1 %exitcond.not, label %._crit_edge, label %.lr.ph, !llvm.loop !53
}